target datalayout = "e-m:e-p270:32:32-p271:32:32-p272:64:64-i64:64-i128:128-f80:128-n8:16:32:64-S128"
target triple = "x86_64-pc-linux-gnu"

; Function Attrs: mustprogress nounwind uwtable
define linkonce_odr void @_ZN5folly8ExecutorD2Ev(ptr noundef nonnull align 8 dereferenceable(8) %0) unnamed_addr #0 comdat align 2 {
  %2 = alloca ptr, align 8
  store ptr %0, ptr %2, align 8, !tbaa !12
  ret void
}

; Function Attrs: mustprogress nounwind uwtable
define void @_ZN5folly20IOThreadPoolExecutorD1Ev(ptr noundef nonnull align 64 dereferenceable(568) %0) unnamed_addr #0 align 2 {
  %2 = alloca ptr, align 8
  store ptr %0, ptr %2, align 8, !tbaa !31
  %3 = load ptr, ptr %2, align 8
  call void @_ZN5folly20IOThreadPoolExecutorD2Ev(ptr noundef nonnull align 64 dereferenceable(568) %3, ptr noundef @_ZTTN5folly20IOThreadPoolExecutorE) #25
  call void @_ZN5folly8ExecutorD2Ev(ptr noundef nonnull align 8 dereferenceable(8) %3) #25
  ret void
}

; Function Attrs: mustprogress nounwind uwtable
define void @_ZN5folly20IOThreadPoolExecutorD0Ev(ptr noundef nonnull align 64 dereferenceable(568) %0) unnamed_addr #0 align 2 {
  %2 = alloca ptr, align 8
  store ptr %0, ptr %2, align 8, !tbaa !31
  %3 = load ptr, ptr %2, align 8
  call void @_ZN5folly20IOThreadPoolExecutorD1Ev(ptr noundef nonnull align 64 dereferenceable(568) %3) #25
  call void @_ZdlPvmSt11align_val_t(ptr noundef %3, i64 noundef 576, i64 noundef 64) #35
  ret void
}

; Function Attrs: nounwind uwtable
define void @_ZTv0_n24_N5folly20IOThreadPoolExecutorD0Ev(ptr noundef %0) unnamed_addr #3 align 2 {
  %2 = alloca ptr, align 8
  store ptr %0, ptr %2, align 8, !tbaa !31
  %3 = load ptr, ptr %2, align 8
  %4 = load ptr, ptr %3, align 64, !tbaa !29
  %5 = getelementptr inbounds i8, ptr %4, i64 -24
  %6 = load i64, ptr %5, align 8
  %7 = getelementptr inbounds i8, ptr %3, i64 %6
  tail call void @_ZN5folly20IOThreadPoolExecutorD0Ev(ptr noundef nonnull align 64 dereferenceable(568) %7) #25
  ret void
}