; Function Attrs: nounwind uwtable
define void @_ZTv0_n24_N5folly20IOThreadPoolExecutorD0Ev(ptr noundef %0) unnamed_addr #3 align 2 {
  %2 = load ptr, ptr %0, align 64, !tbaa !25
  %3 = getelementptr inbounds i8, ptr %2, i64 -24
  %4 = load i64, ptr %3, align 8
  %5 = getelementptr inbounds i8, ptr %0, i64 %4
  tail call void @_ZN5folly20IOThreadPoolExecutorD2Ev(ptr noundef nonnull align 64 dereferenceable(568) %5, ptr noundef nonnull @_ZTTN5folly20IOThreadPoolExecutorE) #25
  tail call void @_ZdlPvmSt11align_val_t(ptr noundef nonnull align 64 dereferenceable(568) %5, i64 noundef 576, i64 noundef 64) #38
  ret void
}